; ModuleID = '31/1923.c'
source_filename = "31/1923.c"
target datalayout = "e-m:e-p270:32:32-p271:32:32-p272:64:64-i64:64-f80:128-n8:16:32:64-S128"
target triple = "x86_64-pc-linux-gnu"

%struct.student = type { [80 x i8], %struct.student* }

@.str = private unnamed_addr constant [4 x i8] c"end\00", align 1

; Function Attrs: noinline nounwind uwtable
define dso_local %struct.student* @creat() #0 {
  %1 = alloca %struct.student*, align 8
  %2 = alloca %struct.student*, align 8
  %3 = alloca %struct.student*, align 8
  %4 = call noalias i8* @malloc(i64 88) #4
  %5 = bitcast i8* %4 to %struct.student*
  store %struct.student* %5, %struct.student** %3, align 8
  %6 = load %struct.student*, %struct.student** %3, align 8
  %7 = getelementptr inbounds %struct.student, %struct.student* %6, i32 0, i32 0
  %8 = getelementptr inbounds [80 x i8], [80 x i8]* %7, i64 0, i64 0
  %9 = call i32 (i8*, ...) bitcast (i32 (...)* @gets to i32 (i8*, ...)*)(i8* %8)
  %10 = load %struct.student*, %struct.student** %3, align 8
  %11 = getelementptr inbounds %struct.student, %struct.student* %10, i32 0, i32 1
  store %struct.student* null, %struct.student** %11, align 8
  %12 = load %struct.student*, %struct.student** %3, align 8
  store %struct.student* %12, %struct.student** %2, align 8
  br label %13

13:                                               ; preds = %35, %0
  %14 = call noalias i8* @malloc(i64 88) #4
  %15 = bitcast i8* %14 to %struct.student*
  store %struct.student* %15, %struct.student** %3, align 8
  %16 = load %struct.student*, %struct.student** %3, align 8
  %17 = getelementptr inbounds %struct.student, %struct.student* %16, i32 0, i32 0
  %18 = getelementptr inbounds [80 x i8], [80 x i8]* %17, i64 0, i64 0
  %19 = call i32 (i8*, ...) bitcast (i32 (...)* @gets to i32 (i8*, ...)*)(i8* %18)
  %20 = load %struct.student*, %struct.student** %3, align 8
  %21 = getelementptr inbounds %struct.student, %struct.student* %20, i32 0, i32 0
  %22 = getelementptr inbounds [80 x i8], [80 x i8]* %21, i64 0, i64 0
  %23 = call i32 @strcmp(i8* %22, i8* getelementptr inbounds ([4 x i8], [4 x i8]* @.str, i64 0, i64 0)) #5
  %24 = icmp eq i32 %23, 0
  br i1 %24, label %25, label %28

25:                                               ; preds = %13
  %26 = load %struct.student*, %struct.student** %3, align 8
  %27 = bitcast %struct.student* %26 to i8*
  call void @free(i8* %27) #4
  br label %36

28:                                               ; preds = %13
  %29 = load %struct.student*, %struct.student** %2, align 8
  %30 = load %struct.student*, %struct.student** %3, align 8
  %31 = getelementptr inbounds %struct.student, %struct.student* %30, i32 0, i32 1
  store %struct.student* %29, %struct.student** %31, align 8
  %32 = load %struct.student*, %struct.student** %3, align 8
  store %struct.student* %32, %struct.student** %2, align 8
  %33 = load %struct.student*, %struct.student** %3, align 8
  store %struct.student* %33, %struct.student** %1, align 8
  br label %34

34:                                               ; preds = %28
  br label %35

35:                                               ; preds = %34
  br i1 true, label %13, label %36

36:                                               ; preds = %35, %25
  %37 = load %struct.student*, %struct.student** %1, align 8
  ret %struct.student* %37
}

; Function Attrs: nounwind
declare dso_local noalias i8* @malloc(i64) #1

declare dso_local i32 @gets(...) #2

; Function Attrs: nounwind readonly
declare dso_local i32 @strcmp(i8*, i8*) #3

; Function Attrs: nounwind
declare dso_local void @free(i8*) #1

; Function Attrs: noinline nounwind uwtable
define dso_local void @destroy(%struct.student* %0) #0 {
  %2 = alloca %struct.student*, align 8
  %3 = alloca %struct.student*, align 8
  store %struct.student* %0, %struct.student** %2, align 8
  %4 = load %struct.student*, %struct.student** %2, align 8
  store %struct.student* %4, %struct.student** %3, align 8
  br label %5

5:                                                ; preds = %8, %1
  %6 = load %struct.student*, %struct.student** %2, align 8
  %7 = icmp ne %struct.student* %6, null
  br i1 %7, label %8, label %15

8:                                                ; preds = %5
  %9 = load %struct.student*, %struct.student** %2, align 8
  store %struct.student* %9, %struct.student** %3, align 8
  %10 = load %struct.student*, %struct.student** %2, align 8
  %11 = getelementptr inbounds %struct.student, %struct.student* %10, i32 0, i32 1
  %12 = load %struct.student*, %struct.student** %11, align 8
  store %struct.student* %12, %struct.student** %2, align 8
  %13 = load %struct.student*, %struct.student** %3, align 8
  %14 = bitcast %struct.student* %13 to i8*
  call void @free(i8* %14) #4
  br label %5

15:                                               ; preds = %5
  ret void
}

; Function Attrs: noinline nounwind uwtable
define dso_local void @main() #0 {
  %1 = alloca %struct.student*, align 8
  %2 = alloca %struct.student*, align 8
  %3 = call %struct.student* @creat()
  store %struct.student* %3, %struct.student** %1, align 8
  %4 = load %struct.student*, %struct.student** %1, align 8
  store %struct.student* %4, %struct.student** %2, align 8
  br label %5

5:                                                ; preds = %13, %0
  %6 = load %struct.student*, %struct.student** %2, align 8
  %7 = getelementptr inbounds %struct.student, %struct.student* %6, i32 0, i32 0
  %8 = getelementptr inbounds [80 x i8], [80 x i8]* %7, i64 0, i64 0
  %9 = call i32 @puts(i8* %8)
  %10 = load %struct.student*, %struct.student** %2, align 8
  %11 = getelementptr inbounds %struct.student, %struct.student* %10, i32 0, i32 1
  %12 = load %struct.student*, %struct.student** %11, align 8
  store %struct.student* %12, %struct.student** %2, align 8
  br label %13

13:                                               ; preds = %5
  %14 = load %struct.student*, %struct.student** %2, align 8
  %15 = icmp ne %struct.student* %14, null
  br i1 %15, label %5, label %16

16:                                               ; preds = %13
  %17 = load %struct.student*, %struct.student** %1, align 8
  call void @destroy(%struct.student* %17)
  ret void
}

declare dso_local i32 @puts(i8*) #2


!llvm.module.flags = !{!0}
!llvm.ident = !{!1}

!0 = !{i32 1, !"wchar_size", i32 4}
!1 = !{!"clang version 10.0.0-4ubuntu1 "}
